; Function Attrs: nounwind uwtable
define noundef ptr @SparseMatrix_set_entries_to_real_one(ptr noundef returned captures(ret: address, provenance) %0) local_unnamed_addr #0 {
  %2 = getelementptr inbounds nuw i8, ptr %0, i64 40
  %3 = load ptr, ptr %2, align 8, !tbaa !13
  tail call void @free(ptr noundef %3) #17
  %4 = getelementptr inbounds nuw i8, ptr %0, i64 8
  %5 = load i32, ptr %4, align 8, !tbaa !14
  %6 = sext i32 %5 to i64
  %.not = icmp eq i32 %5, 0
  br i1 %.not, label %gv_calloc.exit, label %7

7:                                                ; preds = %1
  %mul.ov.i = icmp slt i32 %5, 0
  br i1 %mul.ov.i, label %8, label %11

8:                                                ; preds = %7
  %9 = load ptr, ptr @stderr, align 8, !tbaa !43
  %10 = tail call i32 (ptr, ptr, ...) @fprintf(ptr noundef %9, ptr noundef nonnull @.str, i64 noundef range(i64 -4294967296, 4294967295) %6, i64 noundef 8) #18
  tail call fastcc void @graphviz_exit() #19
  unreachable

11:                                               ; preds = %7
  %12 = tail call noalias ptr @calloc(i64 noundef range(i64 -4294967296, 4294967295) %6, i64 noundef 8) #20
  %13 = icmp eq ptr %12, null
  br i1 %13, label %14, label %.lr.ph.preheader

14:                                               ; preds = %11
  %15 = load ptr, ptr @stderr, align 8, !tbaa !43
  %16 = shl nuw nsw i64 %6, 3
  %17 = tail call i32 (ptr, ptr, ...) @fprintf(ptr noundef %15, ptr noundef nonnull @.str.1, i64 noundef %16) #18
  tail call fastcc void @graphviz_exit() #19
  unreachable

gv_calloc.exit:                                   ; preds = %1
  %18 = tail call noalias ptr @calloc(i64 noundef range(i64 -4294967296, 4294967295) %6, i64 noundef 8) #20
  store ptr %18, ptr %2, align 8, !tbaa !13
  br label %._crit_edge

.lr.ph.preheader:                                 ; preds = %11
  store ptr %12, ptr %2, align 8, !tbaa !13
  %wide.trip.count = zext nneg i32 %5 to i64
  br label %.lr.ph

.lr.ph:                                           ; preds = %.lr.ph.preheader, %.lr.ph
  %indvars.iv = phi i64 [ 0, %.lr.ph.preheader ], [ %indvars.iv.next, %.lr.ph ]
  %19 = getelementptr inbounds nuw double, ptr %12, i64 %indvars.iv
  store double 1.000000e+00, ptr %19, align 8, !tbaa !25
  %indvars.iv.next = add nuw nsw i64 %indvars.iv, 1
  %exitcond.not = icmp eq i64 %indvars.iv.next, %wide.trip.count
  br i1 %exitcond.not, label %._crit_edge, label %.lr.ph, !llvm.loop !200

._crit_edge:                                      ; preds = %.lr.ph, %gv_calloc.exit
  %20 = getelementptr inbounds nuw i8, ptr %0, i64 16
  store i32 1, ptr %20, align 8, !tbaa !17
  %21 = getelementptr inbounds nuw i8, ptr %0, i64 56
  store i64 8, ptr %21, align 8, !tbaa !62
  ret ptr %0
}